target datalayout = "e-m:e-p270:32:32-p271:32:32-p272:64:64-i64:64-i128:128-f80:128-n8:16:32:64-S128"
target triple = "x86_64-pc-linux-gnu"

%"class.fmt::v11::basic_string_view" = type { ptr, i64 }
%"class.std::system_error" = type { %"class.std::runtime_error", %"class.std::error_code" }
%"class.std::runtime_error" = type { %"class.std::exception", %"struct.std::__cow_string" }
%"class.std::exception" = type { ptr }
%"struct.std::__cow_string" = type { %union.anon.5 }
%union.anon.5 = type { ptr }
%"class.std::error_code" = type { i32, ptr }
%"class.fmt::v11::basic_format_string.19" = type { %"class.fmt::v11::basic_string_view" }
%struct.FMT_COMPILE_STRING.20 = type { i8 }
%class.anon.21 = type { i8 }

@_ZTISt12system_error = external constant ptr
@.str.13 = private unnamed_addr constant [21 x i8] c"cannot write to file\00", align 1
@__const._ZN3fmt3v116detail19check_format_stringIJEZZNS1_12fwrite_fullyEPKvmP8_IO_FILEENKUlvE_clEvE18FMT_COMPILE_STRINGTnNSt9enable_ifIXsr17is_compile_stringIT0_EE5valueEiE4typeELi0EEEvSA_.s = private unnamed_addr constant %"class.fmt::v11::basic_string_view" { ptr @.str.13, i64 20 }, align 8

; Function Attrs: mustprogress nounwind uwtable
define linkonce_odr void @_ZN3fmt3v1117basic_string_viewIcEC2EPKcm(ptr noundef nonnull align 8 dereferenceable(16) %0, ptr noundef %1, i64 noundef %2) unnamed_addr #3 comdat align 2 {
  %4 = alloca ptr, align 8
  %5 = alloca ptr, align 8
  %6 = alloca i64, align 8
  store ptr %0, ptr %4, align 8, !tbaa !25
  store ptr %1, ptr %5, align 8, !tbaa !3
  store i64 %2, ptr %6, align 8, !tbaa !14
  %7 = load ptr, ptr %4, align 8
  %8 = getelementptr inbounds nuw %"class.fmt::v11::basic_string_view", ptr %7, i32 0, i32 0
  %9 = load ptr, ptr %5, align 8, !tbaa !3
  store ptr %9, ptr %8, align 8, !tbaa !124
  %10 = getelementptr inbounds nuw %"class.fmt::v11::basic_string_view", ptr %7, i32 0, i32 1
  %11 = load i64, ptr %6, align 8, !tbaa !14
  store i64 %11, ptr %10, align 8, !tbaa !27
  ret void
}

; Function Attrs: mustprogress nounwind uwtable
define linkonce_odr noundef i32 @_ZNSt11char_traitsIcE11to_int_typeERKc(ptr noundef nonnull align 1 dereferenceable(1) %0) #3 comdat align 2 {
  %2 = alloca ptr, align 8
  store ptr %0, ptr %2, align 8, !tbaa !3
  %3 = load ptr, ptr %2, align 8, !tbaa !3
  %4 = load i8, ptr %3, align 1, !tbaa !51
  %5 = zext i8 %4 to i32
  ret i32 %5
}

; Function Attrs: mustprogress nounwind uwtable
define linkonce_odr void @_ZN3fmt3v116detail13ignore_unusedIJbEEEvDpRKT_(ptr noundef nonnull align 1 dereferenceable(1) %0) #3 comdat {
  %2 = alloca ptr, align 8
  store ptr %0, ptr %2, align 8, !tbaa !40
  ret void
}

; Function Attrs: mustprogress nounwind uwtable
define linkonce_odr { ptr, i64 } @_ZN3fmt3v1115detail_exported22compile_string_to_viewIcLm21EEENS0_17basic_string_viewIT_EERAT0__KS4_(ptr noundef nonnull align 1 dereferenceable(21) %0) #3 comdat {
  %2 = alloca %"class.fmt::v11::basic_string_view", align 8
  %3 = alloca ptr, align 8
  store ptr %0, ptr %3, align 8, !tbaa !3
  %4 = load ptr, ptr %3, align 8, !tbaa !3
  %5 = getelementptr inbounds [21 x i8], ptr %4, i64 0, i64 0
  %6 = load ptr, ptr %3, align 8, !tbaa !3
  %7 = getelementptr inbounds nuw [21 x i8], ptr %6, i64 0, i64 20
  %8 = call noundef i32 @_ZNSt11char_traitsIcE11to_int_typeERKc(ptr noundef nonnull align 1 dereferenceable(1) %7) #26
  %9 = icmp eq i32 %8, 0
  %10 = select i1 %9, i32 1, i32 0
  %11 = sext i32 %10 to i64
  %12 = sub i64 21, %11
  call void @_ZN3fmt3v1117basic_string_viewIcEC2EPKcm(ptr noundef nonnull align 8 dereferenceable(16) %2, ptr noundef %5, i64 noundef %12) #26
  %13 = load { ptr, i64 }, ptr %2, align 8
  ret { ptr, i64 } %13
}

; Function Attrs: mustprogress uwtable
define linkonce_odr void @_ZN3fmt3v116detail19check_format_stringIJEZZNS1_12fwrite_fullyEPKvmP8_IO_FILEENKUlvE_clEvE18FMT_COMPILE_STRINGTnNSt9enable_ifIXsr17is_compile_stringIT0_EE5valueEiE4typeELi0EEEvSA_() #4 comdat {
  %1 = alloca %"class.fmt::v11::basic_string_view", align 8
  %2 = alloca i8, align 1
  call void @llvm.lifetime.start.p0(i64 16, ptr %1) #26
  call void @llvm.memcpy.p0.p0.i64(ptr align 8 %1, ptr align 8 @__const._ZN3fmt3v116detail19check_format_stringIJEZZNS1_12fwrite_fullyEPKvmP8_IO_FILEENKUlvE_clEvE18FMT_COMPILE_STRINGTnNSt9enable_ifIXsr17is_compile_stringIT0_EE5valueEiE4typeELi0EEEvSA_.s, i64 16, i1 false)
  call void @llvm.lifetime.start.p0(i64 1, ptr %2) #26
  store i8 1, ptr %2, align 1, !tbaa !16
  call void @_ZN3fmt3v116detail13ignore_unusedIJbEEEvDpRKT_(ptr noundef nonnull align 1 dereferenceable(1) %2)
  call void @llvm.lifetime.end.p0(i64 1, ptr %2) #26
  call void @llvm.lifetime.end.p0(i64 16, ptr %1) #26
  ret void
}

; Function Attrs: mustprogress uwtable
define linkonce_odr { ptr, i64 } @_ZZZN3fmt3v116detail12fwrite_fullyEPKvmP8_IO_FILEENKUlvE_clEvENK18FMT_COMPILE_STRINGcvNS0_17basic_string_viewIcEEEv(ptr noundef nonnull align 1 dereferenceable(1) %0) #4 comdat align 2 {
  %2 = alloca %"class.fmt::v11::basic_string_view", align 8
  %3 = alloca ptr, align 8
  store ptr %0, ptr %3, align 8, !tbaa !227
  %4 = call { ptr, i64 } @_ZN3fmt3v1115detail_exported22compile_string_to_viewIcLm21EEENS0_17basic_string_viewIT_EERAT0__KS4_(ptr noundef nonnull align 1 dereferenceable(21) @.str.13)
  %5 = getelementptr inbounds nuw { ptr, i64 }, ptr %2, i32 0, i32 0
  %6 = extractvalue { ptr, i64 } %4, 0
  store ptr %6, ptr %5, align 8
  %7 = getelementptr inbounds nuw { ptr, i64 }, ptr %2, i32 0, i32 1
  %8 = extractvalue { ptr, i64 } %4, 1
  store i64 %8, ptr %7, align 8
  %9 = load { ptr, i64 }, ptr %2, align 8
  ret { ptr, i64 } %9
}

; Function Attrs: alwaysinline mustprogress uwtable
define linkonce_odr void @_ZN3fmt3v1119basic_format_stringIcJEEC2IZZNS0_6detail12fwrite_fullyEPKvmP8_IO_FILEENKUlvE_clEvE18FMT_COMPILE_STRINGTnNSt9enable_ifIXoosr3std14is_convertibleIRKT_NS0_17basic_string_viewIcEEEE5valueaasr6detail17is_compile_stringISC_EE5valuesr3std16is_constructibleISG_SE_EE5valueEiE4typeELi0EEESE_(ptr noundef nonnull align 8 dereferenceable(16) %0, ptr noundef nonnull align 1 dereferenceable(1) %1) unnamed_addr #8 comdat align 2 {
  %3 = alloca ptr, align 8
  %4 = alloca ptr, align 8
  store ptr %0, ptr %3, align 8, !tbaa !225
  store ptr %1, ptr %4, align 8, !tbaa !227
  %5 = load ptr, ptr %3, align 8
  %6 = getelementptr inbounds nuw %"class.fmt::v11::basic_format_string.19", ptr %5, i32 0, i32 0
  %7 = load ptr, ptr %4, align 8, !tbaa !227
  %8 = call { ptr, i64 } @_ZZZN3fmt3v116detail12fwrite_fullyEPKvmP8_IO_FILEENKUlvE_clEvENK18FMT_COMPILE_STRINGcvNS0_17basic_string_viewIcEEEv(ptr noundef nonnull align 1 dereferenceable(1) %7)
  %9 = getelementptr inbounds nuw { ptr, i64 }, ptr %6, i32 0, i32 0
  %10 = extractvalue { ptr, i64 } %8, 0
  store ptr %10, ptr %9, align 8
  %11 = getelementptr inbounds nuw { ptr, i64 }, ptr %6, i32 0, i32 1
  %12 = extractvalue { ptr, i64 } %8, 1
  store i64 %12, ptr %11, align 8
  call void @_ZN3fmt3v116detail19check_format_stringIJEZZNS1_12fwrite_fullyEPKvmP8_IO_FILEENKUlvE_clEvE18FMT_COMPILE_STRINGTnNSt9enable_ifIXsr17is_compile_stringIT0_EE5valueEiE4typeELi0EEEvSA_()
  ret void
}

; Function Attrs: inlinehint mustprogress nounwind uwtable
define linkonce_odr void @_ZZN3fmt3v116detail12fwrite_fullyEPKvmP8_IO_FILEENKUlvE_clEv(ptr noundef nonnull align 1 dereferenceable(1) %0) #9 comdat align 2 {
  %2 = alloca ptr, align 8
  store ptr %0, ptr %2, align 8, !tbaa !29
  ret void
}

; Function Attrs: inlinehint mustprogress uwtable
define linkonce_odr void @_ZN3fmt3v116detail12fwrite_fullyEPKvmP8_IO_FILE(ptr noundef %0, i64 noundef %1, ptr noundef %2) #7 comdat personality ptr @__gxx_personality_v0 {
  %4 = alloca ptr, align 8
  %5 = alloca i64, align 8
  %6 = alloca ptr, align 8
  %7 = alloca i64, align 8
  %8 = alloca %"class.fmt::v11::basic_format_string.19", align 8
  %9 = alloca %struct.FMT_COMPILE_STRING.20, align 1
  %10 = alloca %class.anon.21, align 1
  %11 = alloca ptr, align 8
  %12 = alloca i32, align 4
  %13 = alloca i1, align 1
  store ptr %0, ptr %4, align 8, !tbaa !29
  store i64 %1, ptr %5, align 8, !tbaa !14
  store ptr %2, ptr %6, align 8, !tbaa !10
  call void @llvm.lifetime.start.p0(i64 8, ptr %7) #26
  %14 = load ptr, ptr %4, align 8, !tbaa !29
  %15 = load i64, ptr %5, align 8, !tbaa !14
  %16 = load ptr, ptr %6, align 8, !tbaa !10
  %17 = call i64 @fwrite(ptr noundef %14, i64 noundef 1, i64 noundef %15, ptr noundef %16)
  store i64 %17, ptr %7, align 8, !tbaa !14
  %18 = load i64, ptr %7, align 8, !tbaa !14
  %19 = load i64, ptr %5, align 8, !tbaa !14
  %20 = icmp ult i64 %18, %19
  br i1 %20, label %21, label %39

21:                                               ; preds = %3
  store i1 true, ptr %13, align 1
  %22 = call ptr @__cxa_allocate_exception(i64 32) #26
  %23 = call ptr @__errno_location() #29
  %24 = load i32, ptr %23, align 4, !tbaa !8
  call void @llvm.lifetime.start.p0(i64 1, ptr %9) #26
  call void @llvm.lifetime.start.p0(i64 1, ptr %10) #26
  invoke void @_ZZN3fmt3v116detail12fwrite_fullyEPKvmP8_IO_FILEENKUlvE_clEv(ptr noundef nonnull align 1 dereferenceable(1) %10)
          to label %25 unwind label %32

25:                                               ; preds = %21
  invoke void @_ZN3fmt3v1119basic_format_stringIcJEEC2IZZNS0_6detail12fwrite_fullyEPKvmP8_IO_FILEENKUlvE_clEvE18FMT_COMPILE_STRINGTnNSt9enable_ifIXoosr3std14is_convertibleIRKT_NS0_17basic_string_viewIcEEEE5valueaasr6detail17is_compile_stringISC_EE5valuesr3std16is_constructibleISG_SE_EE5valueEiE4typeELi0EEESE_(ptr noundef nonnull align 8 dereferenceable(16) %8, ptr noundef nonnull align 1 dereferenceable(1) %9)
          to label %26 unwind label %32

26:                                               ; preds = %25
  %27 = getelementptr inbounds nuw { ptr, i64 }, ptr %8, i32 0, i32 0
  %28 = load ptr, ptr %27, align 8
  %29 = getelementptr inbounds nuw { ptr, i64 }, ptr %8, i32 0, i32 1
  %30 = load i64, ptr %29, align 8
  invoke void @_ZN3fmt3v1112system_errorIJEEESt12system_erroriNS0_19basic_format_stringIcJDpNS0_13type_identityIT_E4typeEEEEDpOS5_(ptr dead_on_unwind writable sret(%"class.std::system_error") align 8 %22, i32 noundef %24, ptr %28, i64 %30)
          to label %31 unwind label %32

31:                                               ; preds = %26
  store i1 false, ptr %13, align 1
  invoke void @__cxa_throw(ptr %22, ptr @_ZTISt12system_error, ptr @_ZNSt12system_errorD1Ev) #28
          to label %45 unwind label %32

32:                                               ; preds = %31, %26, %25, %21
  %33 = landingpad { ptr, i32 }
          cleanup
  %34 = extractvalue { ptr, i32 } %33, 0
  store ptr %34, ptr %11, align 8
  %35 = extractvalue { ptr, i32 } %33, 1
  store i32 %35, ptr %12, align 4
  call void @llvm.lifetime.end.p0(i64 1, ptr %10) #26
  call void @llvm.lifetime.end.p0(i64 1, ptr %9) #26
  %36 = load i1, ptr %13, align 1
  br i1 %36, label %37, label %38

37:                                               ; preds = %32
  call void @__cxa_free_exception(ptr %22) #26
  br label %38

38:                                               ; preds = %37, %32
  call void @llvm.lifetime.end.p0(i64 8, ptr %7) #26
  br label %40

39:                                               ; preds = %3
  call void @llvm.lifetime.end.p0(i64 8, ptr %7) #26
  ret void

40:                                               ; preds = %38
  %41 = load ptr, ptr %11, align 8
  %42 = load i32, ptr %12, align 4
  %43 = insertvalue { ptr, i32 } poison, ptr %41, 0
  %44 = insertvalue { ptr, i32 } %43, i32 %42, 1
  resume { ptr, i32 } %44

45:                                               ; preds = %31
  unreachable
}

; Function Attrs: mustprogress nounwind uwtable
define linkonce_odr noundef i64 @_ZNK3fmt3v1117basic_string_viewIcE4sizeEv(ptr noundef nonnull align 8 dereferenceable(16) %0) #3 comdat align 2 {
  %2 = alloca ptr, align 8
  store ptr %0, ptr %2, align 8, !tbaa !25
  %3 = load ptr, ptr %2, align 8
  %4 = getelementptr inbounds nuw %"class.fmt::v11::basic_string_view", ptr %3, i32 0, i32 1
  %5 = load i64, ptr %4, align 8, !tbaa !27
  ret i64 %5
}

; Function Attrs: mustprogress nounwind uwtable
define linkonce_odr noundef ptr @_ZNK3fmt3v1117basic_string_viewIcE4dataEv(ptr noundef nonnull align 8 dereferenceable(16) %0) #3 comdat align 2 {
  %2 = alloca ptr, align 8
  store ptr %0, ptr %2, align 8, !tbaa !25
  %3 = load ptr, ptr %2, align 8
  %4 = getelementptr inbounds nuw %"class.fmt::v11::basic_string_view", ptr %3, i32 0, i32 0
  %5 = load ptr, ptr %4, align 8, !tbaa !124
  ret ptr %5
}

; Function Attrs: mustprogress uwtable
define void @_ZN3fmt3v116detail5printEP8_IO_FILENS0_17basic_string_viewIcEE(ptr noundef %0, ptr %1, i64 %2) #4 {
  %4 = alloca %"class.fmt::v11::basic_string_view", align 8
  %5 = alloca ptr, align 8
  %6 = getelementptr inbounds nuw { ptr, i64 }, ptr %4, i32 0, i32 0
  store ptr %1, ptr %6, align 8
  %7 = getelementptr inbounds nuw { ptr, i64 }, ptr %4, i32 0, i32 1
  store i64 %2, ptr %7, align 8
  store ptr %0, ptr %5, align 8, !tbaa !10
  %8 = call noundef ptr @_ZNK3fmt3v1117basic_string_viewIcE4dataEv(ptr noundef nonnull align 8 dereferenceable(16) %4) #26
  %9 = call noundef i64 @_ZNK3fmt3v1117basic_string_viewIcE4sizeEv(ptr noundef nonnull align 8 dereferenceable(16) %4) #26
  %10 = load ptr, ptr %5, align 8, !tbaa !10
  call void @_ZN3fmt3v116detail12fwrite_fullyEPKvmP8_IO_FILE(ptr noundef %8, i64 noundef %9, ptr noundef %10)
  ret void
}